; Function Attrs: nofree null_pointer_is_valid sspstrong uwtable
define internal void @dispTimeout(ptr noundef %0, i32 noundef %1) #5 {
  %.not = icmp eq i32 %1, 0
  br i1 %.not, label %5, label %3

3:                                                ; preds = %2
  %4 = tail call i32 (ptr, i64, i32, i64, ptr, ...) @__snprintf_chk(ptr noundef %0, i64 noundef 240, i32 noundef 2, i64 noundef -1, ptr noundef nonnull @.str.117, i32 noundef %1)
  br label %7

5:                                                ; preds = %2
  %6 = tail call i32 (ptr, i64, i32, i64, ptr, ...) @__snprintf_chk(ptr noundef %0, i64 noundef 240, i32 noundef 2, i64 noundef -1, ptr noundef nonnull @.str.118)
  br label %7

7:                                                ; preds = %5, %3
  ret void
}